target datalayout = "e-m:e-p270:32:32-p271:32:32-p272:64:64-i64:64-i128:128-f80:128-n8:16:32:64-S128"
target triple = "x86_64-unknown-linux-gnu"

; Function Attrs: mustprogress uwtable
define hidden noundef zeroext i1 @_ZN4cvc58internal24SubtypeElimNodeConverter16isRealTypeStrictENS0_8TypeNodeE(ptr noundef %tn) #4 align 2 {
entry:
  %tn.indirect_addr = alloca ptr, align 8
  store ptr %tn, ptr %tn.indirect_addr, align 8
  %call = call noundef zeroext i1 @_ZNK4cvc58internal8TypeNode6isRealEv(ptr noundef nonnull align 8 dereferenceable(8) %tn)
  br i1 %call, label %land.rhs, label %land.end

land.rhs:                                         ; preds = %entry
  %call1 = call noundef zeroext i1 @_ZNK4cvc58internal8TypeNode9isIntegerEv(ptr noundef nonnull align 8 dereferenceable(8) %tn)
  %lnot = xor i1 %call1, true
  br label %land.end

land.end:                                         ; preds = %land.rhs, %entry
  %0 = phi i1 [ false, %entry ], [ %lnot, %land.rhs ]
  ret i1 %0
}