; Function Attrs: mustprogress uwtable
define hidden noundef zeroext i1 @_ZN4cvc58internal24SubtypeElimNodeConverter16isRealTypeStrictENS0_8TypeNodeE(ptr noundef nonnull %tn) local_unnamed_addr #3 align 2 {
entry:
  %call = tail call noundef zeroext i1 @_ZNK4cvc58internal8TypeNode6isRealEv(ptr noundef nonnull align 8 dereferenceable(8) %tn)
  br i1 %call, label %land.rhs, label %land.end

land.rhs:                                         ; preds = %entry
  %call1 = tail call noundef zeroext i1 @_ZNK4cvc58internal8TypeNode9isIntegerEv(ptr noundef nonnull align 8 dereferenceable(8) %tn)
  %lnot = xor i1 %call1, true
  br label %land.end

land.end:                                         ; preds = %land.rhs, %entry
  %0 = phi i1 [ false, %entry ], [ %lnot, %land.rhs ]
  ret i1 %0
}